target datalayout = "e-m:e-p270:32:32-p271:32:32-p272:64:64-i64:64-i128:128-f80:128-n8:16:32:64-S128"
target triple = "x86_64-pc-linux-gnu"

%struct._packet_info = type { ptr, ptr, i32, i32, %struct.nstime_t, %struct.nstime_t, %struct.nstime_t, i8, ptr, ptr, ptr, ptr, %struct._address, %struct._address, %struct._address, %struct._address, %struct._address, %struct._address, i32, ptr, i8, [3 x i8], %struct.anon, i32, i32, i32, i32, ptr, i8, ptr, ptr, i16, i16, i32, i32, i16, i32, i32, ptr, ptr, ptr, i8, i8, i16, i16, i16, i32, i16, i16, ptr, ptr, ptr, ptr, ptr, i32, i32 }
%struct.nstime_t = type { i64, i32 }
%struct._address = type { i32, i32, ptr, ptr }
%struct.anon = type { i8, [3 x i8] }

@pref_heuristic_unicode = internal global i8 0, align 1
@want_ignore = internal global ptr null, align 8
@want_heur = internal global ptr null, align 8
@.str.275 = private unnamed_addr constant [5 x i8] c"UTF8\00", align 1

; Function Attrs: null_pointer_is_valid sspstrong uwtable
define internal zeroext i1 @dissect_xml_heur(ptr noundef %0, ptr noundef %1, ptr noundef %2, ptr noundef %3) #3 {
  %5 = alloca i1, align 1
  %6 = alloca ptr, align 8
  %7 = alloca ptr, align 8
  %8 = alloca ptr, align 8
  %9 = alloca ptr, align 8
  %10 = alloca ptr, align 8
  %11 = alloca ptr, align 8
  %12 = alloca i16, align 2
  %13 = alloca i32, align 4
  %14 = alloca i64, align 8
  %15 = alloca i32, align 4
  store ptr %0, ptr %6, align 8
  store ptr %1, ptr %7, align 8
  store ptr %2, ptr %8, align 8
  store ptr %3, ptr %9, align 8
  %16 = load ptr, ptr %7, align 8
  %17 = getelementptr inbounds nuw %struct._packet_info, ptr %16, i32 0, i32 51
  %18 = load ptr, ptr %17, align 8
  %19 = load ptr, ptr %6, align 8
  %20 = load ptr, ptr @want_ignore, align 8
  %21 = call ptr @tvbparse_init(ptr noundef %18, ptr noundef %19, i32 noundef 0, i32 noundef -1, ptr noundef null, ptr noundef %20)
  %22 = load ptr, ptr @want_heur, align 8
  %23 = call zeroext i1 @tvbparse_peek(ptr noundef %21, ptr noundef %22)
  br i1 %23, label %24, label %30

24:                                               ; preds = %4
  %25 = load ptr, ptr %6, align 8
  %26 = load ptr, ptr %7, align 8
  %27 = load ptr, ptr %8, align 8
  %28 = load ptr, ptr %9, align 8
  %29 = call i32 @dissect_xml(ptr noundef %25, ptr noundef %26, ptr noundef %27, ptr noundef %28)
  store i1 true, ptr %5, align 1
  br label %86

30:                                               ; preds = %4
  %31 = load i8, ptr @pref_heuristic_unicode, align 1, !range !13, !noundef !14
  %32 = trunc i8 %31 to i1
  br i1 %32, label %33, label %84

33:                                               ; preds = %30
  call void @llvm.lifetime.start.p0(i64 8, ptr %10) #10
  call void @llvm.lifetime.start.p0(i64 8, ptr %11) #10
  call void @llvm.lifetime.start.p0(i64 2, ptr %12) #10
  call void @llvm.lifetime.start.p0(i64 4, ptr %13) #10
  store i32 -2147483642, ptr %13, align 4
  call void @llvm.lifetime.start.p0(i64 8, ptr %14) #10
  %34 = load ptr, ptr %6, align 8
  %35 = call zeroext i16 @tvb_get_ntohs(ptr noundef %34, i32 noundef 0)
  store i16 %35, ptr %12, align 2
  %36 = load i16, ptr %12, align 2
  %37 = zext i16 %36 to i32
  %38 = icmp eq i32 %37, 65279
  br i1 %38, label %39, label %40

39:                                               ; preds = %33
  store i32 4, ptr %13, align 4
  br label %46

40:                                               ; preds = %33
  %41 = load i16, ptr %12, align 2
  %42 = zext i16 %41 to i32
  %43 = icmp eq i32 %42, 65534
  br i1 %43, label %44, label %45

44:                                               ; preds = %40
  store i32 -2147483644, ptr %13, align 4
  br label %45

45:                                               ; preds = %44, %40
  br label %46

46:                                               ; preds = %45, %39
  %47 = load ptr, ptr %7, align 8
  %48 = getelementptr inbounds nuw %struct._packet_info, ptr %47, i32 0, i32 51
  %49 = load ptr, ptr %48, align 8
  %50 = load ptr, ptr %6, align 8
  %51 = load ptr, ptr %6, align 8
  %52 = call i32 @tvb_captured_length(ptr noundef %51)
  %53 = load i32, ptr %13, align 4
  %54 = call ptr @tvb_get_string_enc(ptr noundef %49, ptr noundef %50, i32 noundef 0, i32 noundef %52, i32 noundef %53)
  store ptr %54, ptr %10, align 8
  %55 = load ptr, ptr %10, align 8
  %56 = call i64 @strlen(ptr noundef %55) #11
  store i64 %56, ptr %14, align 8
  %57 = load ptr, ptr %6, align 8
  %58 = load ptr, ptr %10, align 8
  %59 = load i64, ptr %14, align 8
  %60 = trunc i64 %59 to i32
  %61 = load i64, ptr %14, align 8
  %62 = trunc i64 %61 to i32
  %63 = call ptr @tvb_new_child_real_data(ptr noundef %57, ptr noundef %58, i32 noundef %60, i32 noundef %62)
  store ptr %63, ptr %11, align 8
  %64 = load ptr, ptr %7, align 8
  %65 = getelementptr inbounds nuw %struct._packet_info, ptr %64, i32 0, i32 51
  %66 = load ptr, ptr %65, align 8
  %67 = load ptr, ptr %11, align 8
  %68 = load ptr, ptr @want_ignore, align 8
  %69 = call ptr @tvbparse_init(ptr noundef %66, ptr noundef %67, i32 noundef 0, i32 noundef -1, ptr noundef null, ptr noundef %68)
  %70 = load ptr, ptr @want_heur, align 8
  %71 = call zeroext i1 @tvbparse_peek(ptr noundef %69, ptr noundef %70)
  br i1 %71, label %72, label %80

72:                                               ; preds = %46
  %73 = load ptr, ptr %7, align 8
  %74 = load ptr, ptr %11, align 8
  call void @add_new_data_source(ptr noundef %73, ptr noundef %74, ptr noundef @.str.275)
  %75 = load ptr, ptr %11, align 8
  %76 = load ptr, ptr %7, align 8
  %77 = load ptr, ptr %8, align 8
  %78 = load ptr, ptr %9, align 8
  %79 = call i32 @dissect_xml(ptr noundef %75, ptr noundef %76, ptr noundef %77, ptr noundef %78)
  store i1 true, ptr %5, align 1
  store i32 1, ptr %15, align 4
  br label %81

80:                                               ; preds = %46
  store i32 0, ptr %15, align 4
  br label %81

81:                                               ; preds = %80, %72
  call void @llvm.lifetime.end.p0(i64 8, ptr %14) #10
  call void @llvm.lifetime.end.p0(i64 4, ptr %13) #10
  call void @llvm.lifetime.end.p0(i64 2, ptr %12) #10
  call void @llvm.lifetime.end.p0(i64 8, ptr %11) #10
  call void @llvm.lifetime.end.p0(i64 8, ptr %10) #10
  %82 = load i32, ptr %15, align 4
  switch i32 %82, label %88 [
    i32 0, label %83
    i32 1, label %86
  ]

83:                                               ; preds = %81
  br label %84

84:                                               ; preds = %83, %30
  br label %85

85:                                               ; preds = %84
  store i1 false, ptr %5, align 1
  br label %86

86:                                               ; preds = %85, %81, %24
  %87 = load i1, ptr %5, align 1
  ret i1 %87

88:                                               ; preds = %81
  unreachable
}