; Function Attrs: null_pointer_is_valid sspstrong uwtable
define internal noundef zeroext i1 @dissect_xml_heur(ptr noundef %0, ptr noundef %1, ptr noundef %2, ptr readnone captures(none) %3) #4 {
  %5 = getelementptr inbounds nuw i8, ptr %1, i64 408
  %6 = load ptr, ptr %5, align 8
  %7 = load ptr, ptr @want_ignore, align 8
  %8 = tail call ptr @tvbparse_init(ptr noundef %6, ptr noundef %0, i32 noundef 0, i32 noundef -1, ptr noundef null, ptr noundef %7)
  %9 = load ptr, ptr @want_heur, align 8
  %10 = tail call zeroext i1 @tvbparse_peek(ptr noundef %8, ptr noundef %9)
  br i1 %10, label %.thread.sink.split, label %11

11:                                               ; preds = %4
  %12 = load i8, ptr @pref_heuristic_unicode, align 1, !range !15, !noundef !16
  %13 = trunc nuw i8 %12 to i1
  br i1 %13, label %14, label %.thread

14:                                               ; preds = %11
  %15 = tail call zeroext i16 @tvb_get_ntohs(ptr noundef %0, i32 noundef 0)
  %switch.selectcmp = icmp eq i16 %15, -2
  %switch.select = select i1 %switch.selectcmp, i32 -2147483644, i32 -2147483642
  %switch.selectcmp30 = icmp eq i16 %15, -257
  %switch.select31 = select i1 %switch.selectcmp30, i32 4, i32 %switch.select
  %16 = load ptr, ptr %5, align 8
  %17 = tail call i32 @tvb_captured_length(ptr noundef %0)
  %18 = tail call ptr @tvb_get_string_enc(ptr noundef %16, ptr noundef %0, i32 noundef 0, i32 noundef %17, i32 noundef %switch.select31)
  %19 = tail call i64 @strlen(ptr noundef %18) #12
  %20 = trunc i64 %19 to i32
  %21 = tail call ptr @tvb_new_child_real_data(ptr noundef %0, ptr noundef %18, i32 noundef %20, i32 noundef %20)
  %22 = load ptr, ptr %5, align 8
  %23 = load ptr, ptr @want_ignore, align 8
  %24 = tail call ptr @tvbparse_init(ptr noundef %22, ptr noundef %21, i32 noundef 0, i32 noundef -1, ptr noundef null, ptr noundef %23)
  %25 = load ptr, ptr @want_heur, align 8
  %26 = tail call zeroext i1 @tvbparse_peek(ptr noundef %24, ptr noundef %25)
  br i1 %26, label %27, label %.thread

27:                                               ; preds = %14
  tail call void @add_new_data_source(ptr noundef %1, ptr noundef %21, ptr noundef nonnull @.str.275)
  br label %.thread.sink.split

.thread.sink.split:                               ; preds = %4, %27
  %.sink = phi ptr [ %21, %27 ], [ %0, %4 ]
  %28 = tail call i32 @dissect_xml(ptr noundef %.sink, ptr noundef %1, ptr noundef %2, ptr poison)
  br label %.thread

.thread:                                          ; preds = %.thread.sink.split, %14, %11
  %.027 = phi i1 [ false, %11 ], [ false, %14 ], [ true, %.thread.sink.split ]
  ret i1 %.027
}